target datalayout = "e-m:e-p270:32:32-p271:32:32-p272:64:64-i64:64-i128:128-f80:128-n8:16:32:64-S128"
target triple = "x86_64-pc-linux-gnu"

%struct.RBasic = type { i64, i64 }
%struct.RData = type { %struct.RBasic, ptr, ptr, ptr }

@eTimestampError = internal global i64 0, align 8
@.str.51 = private unnamed_addr constant [43 x i8] c"Error when decoding the timestamp response\00", align 1

; Function Attrs: nounwind sspstrong uwtable
define internal i64 @ossl_ts_resp_initialize(i64 noundef %0, i64 noundef %1) #0 {
  %3 = alloca i64, align 8
  %4 = alloca i64, align 8
  %5 = alloca ptr, align 8
  %6 = alloca ptr, align 8
  store i64 %0, ptr %3, align 8, !tbaa !6
  store i64 %1, ptr %4, align 8, !tbaa !6
  call void @llvm.lifetime.start.p0(i64 8, ptr %5) #16
  %7 = load i64, ptr %3, align 8, !tbaa !6
  %8 = inttoptr i64 %7 to ptr
  %9 = getelementptr inbounds nuw %struct.RData, ptr %8, i32 0, i32 3
  %10 = load ptr, ptr %9, align 8, !tbaa !19
  store ptr %10, ptr %5, align 8, !tbaa !13
  call void @llvm.lifetime.start.p0(i64 8, ptr %6) #16
  %11 = load i64, ptr %4, align 8, !tbaa !6
  %12 = call i64 @ossl_to_der_if_possible(i64 noundef %11)
  store i64 %12, ptr %4, align 8, !tbaa !6
  %13 = call ptr @ossl_obj2bio(ptr noundef %4)
  store ptr %13, ptr %6, align 8, !tbaa !21
  %14 = load ptr, ptr %6, align 8, !tbaa !21
  %15 = call ptr @d2i_TS_RESP_bio(ptr noundef %14, ptr noundef %5)
  store ptr %15, ptr %5, align 8, !tbaa !13
  %16 = load ptr, ptr %6, align 8, !tbaa !21
  %17 = call i32 @BIO_free(ptr noundef %16)
  %18 = load ptr, ptr %5, align 8, !tbaa !13
  %19 = icmp ne ptr %18, null
  br i1 %19, label %25, label %20

20:                                               ; preds = %2
  %21 = load i64, ptr %3, align 8, !tbaa !6
  %22 = inttoptr i64 %21 to ptr
  %23 = getelementptr inbounds nuw %struct.RData, ptr %22, i32 0, i32 3
  store ptr null, ptr %23, align 8, !tbaa !19
  %24 = load i64, ptr @eTimestampError, align 8, !tbaa !6
  call void (i64, ptr, ...) @ossl_raise(i64 noundef %24, ptr noundef @.str.51) #17
  unreachable

25:                                               ; preds = %2
  %26 = load ptr, ptr %5, align 8, !tbaa !13
  %27 = load i64, ptr %3, align 8, !tbaa !6
  %28 = inttoptr i64 %27 to ptr
  %29 = getelementptr inbounds nuw %struct.RData, ptr %28, i32 0, i32 3
  store ptr %26, ptr %29, align 8, !tbaa !19
  %30 = load i64, ptr %3, align 8, !tbaa !6
  call void @llvm.lifetime.end.p0(i64 8, ptr %6) #16
  call void @llvm.lifetime.end.p0(i64 8, ptr %5) #16
  ret i64 %30
}